

Microchip Technology PIC LITE Macro Assembler V1.34 build -361300703 
                                                                                               Fri Sep 29 18:28:45 2017

Microchip Technology Omniscient Code Generator (Lite mode) build 201502162209
     1                           	processor	16F877A
     2                           	opt	pw 120
     3                           	opt	lm
     4                           	psect	text0,local,class=CODE,merge=1,delta=2
     5                           	psect	cinit,global,class=CODE,merge=1,delta=2
     6                           	psect	cstackCOMMON,global,class=COMMON,space=1,delta=1
     7                           	psect	cstackBANK0,global,class=BANK0,space=1,delta=1
     8                           	psect	maintext,global,class=CODE,split=1,delta=2
     9                           	psect	text1,local,class=CODE,merge=1,delta=2
    10                           	psect	text2,local,class=CODE,merge=1,delta=2
    11                           	psect	text3,local,class=CODE,merge=1,delta=2
    12                           	psect	text4,local,class=CODE,merge=1,delta=2
    13                           	psect	text5,local,class=CODE,merge=1,delta=2
    14                           	psect	text6,local,class=CODE,merge=1,delta=2
    15                           	dabs	1,0x7E,2
    16  0000                     	;# 
    17  0001                     	;# 
    18  0002                     	;# 
    19  0003                     	;# 
    20  0004                     	;# 
    21  0005                     	;# 
    22  0006                     	;# 
    23  0007                     	;# 
    24  0008                     	;# 
    25  0009                     	;# 
    26  000A                     	;# 
    27  000B                     	;# 
    28  000C                     	;# 
    29  000D                     	;# 
    30  000E                     	;# 
    31  000E                     	;# 
    32  000F                     	;# 
    33  0010                     	;# 
    34  0011                     	;# 
    35  0012                     	;# 
    36  0013                     	;# 
    37  0014                     	;# 
    38  0015                     	;# 
    39  0015                     	;# 
    40  0016                     	;# 
    41  0017                     	;# 
    42  0018                     	;# 
    43  0019                     	;# 
    44  001A                     	;# 
    45  001B                     	;# 
    46  001B                     	;# 
    47  001C                     	;# 
    48  001D                     	;# 
    49  001E                     	;# 
    50  001F                     	;# 
    51  0081                     	;# 
    52  0085                     	;# 
    53  0086                     	;# 
    54  0087                     	;# 
    55  0088                     	;# 
    56  0089                     	;# 
    57  008C                     	;# 
    58  008D                     	;# 
    59  008E                     	;# 
    60  0091                     	;# 
    61  0092                     	;# 
    62  0093                     	;# 
    63  0094                     	;# 
    64  0098                     	;# 
    65  0099                     	;# 
    66  009C                     	;# 
    67  009D                     	;# 
    68  009E                     	;# 
    69  009F                     	;# 
    70  010C                     	;# 
    71  010D                     	;# 
    72  010E                     	;# 
    73  010F                     	;# 
    74  018C                     	;# 
    75  018D                     	;# 
    76  000E                     _TMR1	set	14
    77  0006                     _PORTB	set	6
    78  003A                     _RC2	set	58
    79  003B                     _RC3	set	59
    80  0084                     _T1CKPS0	set	132
    81  0085                     _T1CKPS1	set	133
    82  0081                     _TMR1CS	set	129
    83  0080                     _TMR1ON	set	128
    84  0086                     _TRISB	set	134
    85  043A                     _TRISC2	set	1082
    86  043B                     _TRISC3	set	1083
    87                           
    88                           	psect	text0
    89  0000                     __ptext0:	
    90                           ; #config settings
    91                           
    92                           
    93                           ;psect for function ___awdiv
    94  0000                     
    95                           	psect	cinit
    96  07FC                     start_initialization:	
    97  07FC                     __initialization:	
    98  07FC                     end_of_initialization:	
    99                           ;End of C runtime variable initialization code
   100                           
   101  07FC                     __end_of__initialization:	
   102  07FC  0183               	clrf	3
   103  07FD  120A  118A  2E2B   	ljmp	_main	;jump to C main() function
   104                           
   105                           	psect	cstackCOMMON
   106  0070                     __pcstackCOMMON:	
   107  0070                     ?_main:	
   108  0070                     ?_calc_dist:	
   109                           ; 0 bytes @ 0x0
   110                           
   111  0070                     ?___ftpack:	
   112                           ; 1 bytes @ 0x0
   113                           
   114  0070                     ___ftpack@arg:	
   115                           ; 3 bytes @ 0x0
   116                           
   117                           
   118                           ; 3 bytes @ 0x0
   119  0070                     	ds	3
   120  0073                     ___ftpack@exp:	
   121                           
   122                           ; 1 bytes @ 0x3
   123  0073                     	ds	1
   124  0074                     ___ftpack@sign:	
   125                           
   126                           ; 1 bytes @ 0x4
   127  0074                     	ds	1
   128  0075                     ??___ftpack:	
   129                           
   130                           ; 0 bytes @ 0x5
   131  0075                     	ds	3
   132  0078                     ?___lwtoft:	
   133  0078                     ___lwtoft@c:	
   134                           ; 3 bytes @ 0x8
   135                           
   136                           
   137                           ; 2 bytes @ 0x8
   138  0078                     	ds	3
   139  007B                     ??___lwtoft:	
   140                           
   141                           ; 0 bytes @ 0xB
   142  007B                     	ds	1
   143  007C                     ??_calc_dist:	
   144                           
   145                           ; 0 bytes @ 0xC
   146  007C                     	ds	1
   147  007D                     calc_dist@distance:	
   148                           
   149                           ; 1 bytes @ 0xD
   150  007D                     	ds	1
   151                           
   152                           	psect	cstackBANK0
   153  0020                     __pcstackBANK0:	
   154  0020                     ?___ftdiv:	
   155  0020                     ___ftdiv@f2:	
   156                           ; 3 bytes @ 0x0
   157                           
   158                           
   159                           ; 3 bytes @ 0x0
   160  0020                     	ds	3
   161  0023                     ___ftdiv@f1:	
   162                           
   163                           ; 3 bytes @ 0x3
   164  0023                     	ds	3
   165  0026                     ??___ftdiv:	
   166                           
   167                           ; 0 bytes @ 0x6
   168  0026                     	ds	4
   169  002A                     ___ftdiv@cntr:	
   170                           
   171                           ; 1 bytes @ 0xA
   172  002A                     	ds	1
   173  002B                     ___ftdiv@f3:	
   174                           
   175                           ; 3 bytes @ 0xB
   176  002B                     	ds	3
   177  002E                     ___ftdiv@exp:	
   178                           
   179                           ; 1 bytes @ 0xE
   180  002E                     	ds	1
   181  002F                     ___ftdiv@sign:	
   182                           
   183                           ; 1 bytes @ 0xF
   184  002F                     	ds	1
   185  0030                     ?___fttol:	
   186  0030                     ___fttol@f1:	
   187                           ; 4 bytes @ 0x10
   188                           
   189                           
   190                           ; 3 bytes @ 0x10
   191  0030                     	ds	4
   192  0034                     ??___fttol:	
   193                           
   194                           ; 0 bytes @ 0x14
   195  0034                     	ds	4
   196  0038                     ___fttol@sign1:	
   197                           
   198                           ; 1 bytes @ 0x18
   199  0038                     	ds	1
   200  0039                     ___fttol@lval:	
   201                           
   202                           ; 4 bytes @ 0x19
   203  0039                     	ds	4
   204  003D                     ___fttol@exp1:	
   205                           
   206                           ; 1 bytes @ 0x1D
   207  003D                     	ds	1
   208  003E                     ?___awdiv:	
   209  003E                     ___awdiv@divisor:	
   210                           ; 2 bytes @ 0x1E
   211                           
   212                           
   213                           ; 2 bytes @ 0x1E
   214  003E                     	ds	2
   215  0040                     ___awdiv@dividend:	
   216                           
   217                           ; 2 bytes @ 0x20
   218  0040                     	ds	2
   219  0042                     ??___awdiv:	
   220                           
   221                           ; 0 bytes @ 0x22
   222  0042                     	ds	1
   223  0043                     ___awdiv@counter:	
   224                           
   225                           ; 1 bytes @ 0x23
   226  0043                     	ds	1
   227  0044                     ___awdiv@sign:	
   228                           
   229                           ; 1 bytes @ 0x24
   230  0044                     	ds	1
   231  0045                     ___awdiv@quotient:	
   232                           
   233                           ; 2 bytes @ 0x25
   234  0045                     	ds	2
   235  0047                     ??_main:	
   236                           
   237                           ; 0 bytes @ 0x27
   238  0047                     	ds	3
   239  004A                     main@dist:	
   240                           
   241                           ; 1 bytes @ 0x2A
   242  004A                     	ds	1
   243                           
   244                           	psect	maintext
   245  062B                     __pmaintext:	
   246 ;;
   247 ;;Main: autosize = 0, tempsize = 3, incstack = 0, save=0
   248 ;;
   249 ;; *************** function _main *****************
   250 ;; Defined at:
   251 ;;		line 12 in file "main.c"
   252 ;; Parameters:    Size  Location     Type
   253 ;;		None
   254 ;; Auto vars:     Size  Location     Type
   255 ;;  dist            1   42[BANK0 ] unsigned char 
   256 ;; Return value:  Size  Location     Type
   257 ;;		None               void
   258 ;; Registers used:
   259 ;;		wreg, status,2, status,0, pclath, cstack
   260 ;; Tracked objects:
   261 ;;		On entry : B00/0
   262 ;;		On exit  : 0/0
   263 ;;		Unchanged: 0/0
   264 ;; Data sizes:     COMMON   BANK0   BANK1   BANK3   BANK2
   265 ;;      Params:         0       0       0       0       0
   266 ;;      Locals:         0       1       0       0       0
   267 ;;      Temps:          0       3       0       0       0
   268 ;;      Totals:         0       4       0       0       0
   269 ;;Total ram usage:        4 bytes
   270 ;; Hardware stack levels required when called:    3
   271 ;; This function calls:
   272 ;;		___awdiv
   273 ;;		_calc_dist
   274 ;; This function is called by:
   275 ;;		Startup code after reset
   276 ;; This function uses a non-reentrant model
   277 ;;
   278                           
   279                           
   280                           ;psect for function _main
   281  062B                     _main:	
   282                           
   283                           ;main.c: 14: unsigned char dist=0;
   284                           
   285                           ;incstack = 0
   286                           ; Regs used in _main: [wreg+status,2+status,0+pclath+cstack]
   287  062B  1283               	bcf	3,5	;RP0=0, select bank0
   288  062C  1303               	bcf	3,6	;RP1=0, select bank0
   289  062D  01CA               	clrf	main@dist
   290                           
   291                           ;main.c: 16: TRISB = 0x00;
   292  062E  1683               	bsf	3,5	;RP0=1, select bank1
   293  062F  1303               	bcf	3,6	;RP1=0, select bank1
   294  0630  0186               	clrf	6	;volatile
   295                           
   296                           ;main.c: 18: PORTB = 0x00;
   297  0631  1283               	bcf	3,5	;RP0=0, select bank0
   298  0632  1303               	bcf	3,6	;RP1=0, select bank0
   299  0633  0186               	clrf	6	;volatile
   300                           
   301                           ;main.c: 20: TRISC2 = 0;
   302  0634  1683               	bsf	3,5	;RP0=1, select bank1
   303  0635  1303               	bcf	3,6	;RP1=0, select bank1
   304  0636  1107               	bcf	7,2	;volatile
   305                           
   306                           ;main.c: 21: RC2 = 0;
   307  0637  1283               	bcf	3,5	;RP0=0, select bank0
   308  0638  1303               	bcf	3,6	;RP1=0, select bank0
   309  0639  1107               	bcf	7,2	;volatile
   310                           
   311                           ;main.c: 23: TRISC3 = 1;
   312  063A  1683               	bsf	3,5	;RP0=1, select bank1
   313  063B  1303               	bcf	3,6	;RP1=0, select bank1
   314  063C  1587               	bsf	7,3	;volatile
   315                           
   316                           ;main.c: 26: T1CKPS0=0;
   317  063D  1283               	bcf	3,5	;RP0=0, select bank0
   318  063E  1303               	bcf	3,6	;RP1=0, select bank0
   319  063F  1210               	bcf	16,4	;volatile
   320                           
   321                           ;main.c: 27: T1CKPS1=0;
   322  0640  1290               	bcf	16,5	;volatile
   323                           
   324                           ;main.c: 29: TMR1CS=0;
   325  0641  1090               	bcf	16,1	;volatile
   326  0642                     l932:	
   327                           ;main.c: 31: while(1)
   328                           
   329                           
   330                           ;main.c: 32: {
   331                           ;main.c: 33: dist = calc_dist()/5;
   332  0642  3005               	movlw	5
   333  0643  1283               	bcf	3,5	;RP0=0, select bank0
   334  0644  1303               	bcf	3,6	;RP1=0, select bank0
   335  0645  00BE               	movwf	___awdiv@divisor
   336  0646  3000               	movlw	0
   337  0647  00BF               	movwf	___awdiv@divisor+1
   338  0648  120A  118A  2516  120A  118A  	fcall	_calc_dist
   339  064D  1283               	bcf	3,5	;RP0=0, select bank0
   340  064E  1303               	bcf	3,6	;RP1=0, select bank0
   341  064F  00C7               	movwf	??_main
   342  0650  01C8               	clrf	??_main+1
   343  0651  0847               	movf	??_main,w
   344  0652  00C0               	movwf	___awdiv@dividend
   345  0653  0848               	movf	??_main+1,w
   346  0654  00C1               	movwf	___awdiv@dividend+1
   347  0655  120A  118A  2564  120A  118A  	fcall	___awdiv
   348  065A  1283               	bcf	3,5	;RP0=0, select bank0
   349  065B  1303               	bcf	3,6	;RP1=0, select bank0
   350  065C  083E               	movf	?___awdiv,w
   351  065D  00C9               	movwf	??_main+2
   352  065E  0849               	movf	??_main+2,w
   353  065F  00CA               	movwf	main@dist
   354                           
   355                           ;main.c: 34: if(dist==1)
   356  0660  034A               	decf	main@dist,w
   357  0661  1D03               	btfss	3,2
   358  0662  2E72               	goto	l938
   359                           
   360                           ;main.c: 35: {PORTB = 0x01; _delay((unsigned long)((250)*(4000000/4000.0)));}
   361  0663  3001               	movlw	1
   362  0664  0086               	movwf	6	;volatile
   363  0665  3002               	movlw	2
   364  0666  00C9               	movwf	??_main+2
   365  0667  3045               	movlw	69
   366  0668  00C8               	movwf	??_main+1
   367  0669  30A9               	movlw	169
   368  066A  00C7               	movwf	??_main
   369  066B                     u977:	
   370  066B  0BC7               	decfsz	??_main,f
   371  066C  2E6B               	goto	u977
   372  066D  0BC8               	decfsz	??_main+1,f
   373  066E  2E6B               	goto	u977
   374  066F  0BC9               	decfsz	??_main+2,f
   375  0670  2E6B               	goto	u977
   376  0671  2E72               	nop2
   377  0672                     l938:	
   378                           
   379                           ;main.c: 36: if(dist==2)
   380  0672  3002               	movlw	2
   381  0673  1283               	bcf	3,5	;RP0=0, select bank0
   382  0674  1303               	bcf	3,6	;RP1=0, select bank0
   383  0675  064A               	xorwf	main@dist,w
   384  0676  1D03               	btfss	3,2
   385  0677  2E87               	goto	l942
   386                           
   387                           ;main.c: 37: {PORTB = 0x03; _delay((unsigned long)((250)*(4000000/4000.0)));}
   388  0678  3003               	movlw	3
   389  0679  0086               	movwf	6	;volatile
   390  067A  3002               	movlw	2
   391  067B  00C9               	movwf	??_main+2
   392  067C  3045               	movlw	69
   393  067D  00C8               	movwf	??_main+1
   394  067E  30A9               	movlw	169
   395  067F  00C7               	movwf	??_main
   396  0680                     u987:	
   397  0680  0BC7               	decfsz	??_main,f
   398  0681  2E80               	goto	u987
   399  0682  0BC8               	decfsz	??_main+1,f
   400  0683  2E80               	goto	u987
   401  0684  0BC9               	decfsz	??_main+2,f
   402  0685  2E80               	goto	u987
   403  0686  2E87               	nop2
   404  0687                     l942:	
   405                           
   406                           ;main.c: 38: if(dist==3)
   407  0687  3003               	movlw	3
   408  0688  1283               	bcf	3,5	;RP0=0, select bank0
   409  0689  1303               	bcf	3,6	;RP1=0, select bank0
   410  068A  064A               	xorwf	main@dist,w
   411  068B  1D03               	btfss	3,2
   412  068C  2E9C               	goto	l946
   413                           
   414                           ;main.c: 39: {PORTB = 0x07; _delay((unsigned long)((250)*(4000000/4000.0)));}
   415  068D  3007               	movlw	7
   416  068E  0086               	movwf	6	;volatile
   417  068F  3002               	movlw	2
   418  0690  00C9               	movwf	??_main+2
   419  0691  3045               	movlw	69
   420  0692  00C8               	movwf	??_main+1
   421  0693  30A9               	movlw	169
   422  0694  00C7               	movwf	??_main
   423  0695                     u997:	
   424  0695  0BC7               	decfsz	??_main,f
   425  0696  2E95               	goto	u997
   426  0697  0BC8               	decfsz	??_main+1,f
   427  0698  2E95               	goto	u997
   428  0699  0BC9               	decfsz	??_main+2,f
   429  069A  2E95               	goto	u997
   430  069B  2E9C               	nop2
   431  069C                     l946:	
   432                           
   433                           ;main.c: 40: if(dist==4)
   434  069C  3004               	movlw	4
   435  069D  1283               	bcf	3,5	;RP0=0, select bank0
   436  069E  1303               	bcf	3,6	;RP1=0, select bank0
   437  069F  064A               	xorwf	main@dist,w
   438  06A0  1D03               	btfss	3,2
   439  06A1  2EB2               	goto	l950
   440                           
   441                           ;main.c: 41: {PORTB = 0x0F; _delay((unsigned long)((250)*(4000000/4000.0)));}
   442  06A2  300F               	movlw	15
   443  06A3  0086               	movwf	6	;volatile
   444  06A4  3002               	movlw	2
   445  06A5  00C9               	movwf	??_main+2
   446  06A6  3045               	movlw	69
   447  06A7  00C8               	movwf	??_main+1
   448  06A8  30A9               	movlw	169
   449  06A9  00C7               	movwf	??_main
   450  06AA                     u1007:	
   451  06AA  0BC7               	decfsz	??_main,f
   452  06AB  2EAA               	goto	u1007
   453  06AC  0BC8               	decfsz	??_main+1,f
   454  06AD  2EAA               	goto	u1007
   455  06AE  0BC9               	decfsz	??_main+2,f
   456  06AF  2EAA               	goto	u1007
   457  06B0  2EB1               	nop2
   458  06B1  2E42               	goto	l932
   459  06B2                     l950:	
   460                           
   461                           ;main.c: 42: else
   462                           ;main.c: 43: PORTB = 0x00;
   463  06B2  1283               	bcf	3,5	;RP0=0, select bank0
   464  06B3  1303               	bcf	3,6	;RP1=0, select bank0
   465  06B4  0186               	clrf	6	;volatile
   466  06B5  2E42               	goto	l932
   467  06B6                     __end_of_main:	
   468                           ;main.c: 44: }
   469                           ;main.c: 45: return;
   470                           
   471                           
   472                           	psect	text1
   473  0516                     __ptext1:	
   474 ;; *************** function _calc_dist *****************
   475 ;; Defined at:
   476 ;;		line 48 in file "main.c"
   477 ;; Parameters:    Size  Location     Type
   478 ;;		None
   479 ;; Auto vars:     Size  Location     Type
   480 ;;  distance        1   13[COMMON] unsigned char 
   481 ;; Return value:  Size  Location     Type
   482 ;;                  1    wreg      unsigned char 
   483 ;; Registers used:
   484 ;;		wreg, status,2, status,0, pclath, cstack
   485 ;; Tracked objects:
   486 ;;		On entry : 0/0
   487 ;;		On exit  : 0/0
   488 ;;		Unchanged: 0/0
   489 ;; Data sizes:     COMMON   BANK0   BANK1   BANK3   BANK2
   490 ;;      Params:         0       0       0       0       0
   491 ;;      Locals:         1       0       0       0       0
   492 ;;      Temps:          1       0       0       0       0
   493 ;;      Totals:         2       0       0       0       0
   494 ;;Total ram usage:        2 bytes
   495 ;; Hardware stack levels used:    1
   496 ;; Hardware stack levels required when called:    2
   497 ;; This function calls:
   498 ;;		___ftdiv
   499 ;;		___fttol
   500 ;;		___lwtoft
   501 ;; This function is called by:
   502 ;;		_main
   503 ;; This function uses a non-reentrant model
   504 ;;
   505                           
   506                           
   507                           ;psect for function _calc_dist
   508  0516                     _calc_dist:	
   509                           
   510                           ;main.c: 50: unsigned char distance=0;
   511                           
   512                           ;incstack = 0
   513                           ; Regs used in _calc_dist: [wreg+status,2+status,0+pclath+cstack]
   514  0516  01FD               	clrf	calc_dist@distance
   515                           
   516                           ;main.c: 51: TMR1=0;
   517  0517  1283               	bcf	3,5	;RP0=0, select bank0
   518  0518  1303               	bcf	3,6	;RP1=0, select bank0
   519  0519  018E               	clrf	14	;volatile
   520  051A  018F               	clrf	15	;volatile
   521                           
   522                           ;main.c: 52: RC2=1;
   523  051B  1507               	bsf	7,2	;volatile
   524                           
   525                           ;main.c: 53: _delay((unsigned long)((10)*(4000000/4000000.0)));
   526  051C  3003               	movlw	3
   527  051D  00FC               	movwf	??_calc_dist
   528  051E                     u1017:	
   529  051E  0BFC               	decfsz	??_calc_dist,f
   530  051F  2D1E               	goto	u1017
   531                           
   532                           ;main.c: 54: RC2=0;
   533  0520  1283               	bcf	3,5	;RP0=0, select bank0
   534  0521  1303               	bcf	3,6	;RP1=0, select bank0
   535  0522  1107               	bcf	7,2	;volatile
   536  0523                     l40:	
   537                           ;main.c: 55: while(!RC3);
   538                           
   539  0523  1D87               	btfss	7,3	;volatile
   540  0524  2D23               	goto	l40
   541                           
   542                           ;main.c: 56: TMR1ON=1;
   543  0525  1410               	bsf	16,0	;volatile
   544  0526                     l43:	
   545                           ;main.c: 57: while(RC3);
   546                           
   547  0526  1987               	btfsc	7,3	;volatile
   548  0527  2D26               	goto	l43
   549                           
   550                           ;main.c: 58: TMR1ON=0;
   551  0528  1010               	bcf	16,0	;volatile
   552                           
   553                           ;main.c: 59: distance = (TMR1/58.82);
   554  0529  080F               	movf	15,w	;volatile
   555  052A  00F9               	movwf	___lwtoft@c+1
   556  052B  080E               	movf	14,w	;volatile
   557  052C  00F8               	movwf	___lwtoft@c
   558  052D  120A  118A  2502  120A  118A  	fcall	___lwtoft
   559  0532  0878               	movf	?___lwtoft,w
   560  0533  1283               	bcf	3,5	;RP0=0, select bank0
   561  0534  1303               	bcf	3,6	;RP1=0, select bank0
   562  0535  00A3               	movwf	___ftdiv@f1
   563  0536  0879               	movf	?___lwtoft+1,w
   564  0537  00A4               	movwf	___ftdiv@f1+1
   565  0538  087A               	movf	?___lwtoft+2,w
   566  0539  00A5               	movwf	___ftdiv@f1+2
   567  053A  3048               	movlw	72
   568  053B  00A0               	movwf	___ftdiv@f2
   569  053C  306B               	movlw	107
   570  053D  00A1               	movwf	___ftdiv@f2+1
   571  053E  3042               	movlw	66
   572  053F  00A2               	movwf	___ftdiv@f2+2
   573  0540  120A  118A  2744  120A  118A  	fcall	___ftdiv
   574  0545  1283               	bcf	3,5	;RP0=0, select bank0
   575  0546  1303               	bcf	3,6	;RP1=0, select bank0
   576  0547  0820               	movf	?___ftdiv,w
   577  0548  00B0               	movwf	___fttol@f1
   578  0549  0821               	movf	?___ftdiv+1,w
   579  054A  00B1               	movwf	___fttol@f1+1
   580  054B  0822               	movf	?___ftdiv+2,w
   581  054C  00B2               	movwf	___fttol@f1+2
   582  054D  120A  118A  26B6  120A  118A  	fcall	___fttol
   583  0552  1283               	bcf	3,5	;RP0=0, select bank0
   584  0553  1303               	bcf	3,6	;RP1=0, select bank0
   585  0554  0830               	movf	?___fttol,w
   586  0555  00FC               	movwf	??_calc_dist
   587  0556  087C               	movf	??_calc_dist,w
   588  0557  00FD               	movwf	calc_dist@distance
   589                           
   590                           ;main.c: 60: if(distance>=2 && distance <150)
   591  0558  3002               	movlw	2
   592  0559  027D               	subwf	calc_dist@distance,w
   593  055A  1C03               	skipc
   594  055B  2D62               	goto	l870
   595  055C  3096               	movlw	150
   596  055D  027D               	subwf	calc_dist@distance,w
   597  055E  1803               	skipnc
   598  055F  2D62               	goto	l870
   599                           
   600                           ;main.c: 61: return distance;
   601  0560  087D               	movf	calc_dist@distance,w
   602  0561  0008               	return
   603  0562                     l870:	
   604                           
   605                           ;main.c: 62: else
   606                           ;main.c: 63: return 0;
   607  0562  3000               	movlw	0
   608  0563  0008               	return
   609  0564                     __end_of_calc_dist:	
   610                           
   611                           	psect	text2
   612  0502                     __ptext2:	
   613 ;; *************** function ___lwtoft *****************
   614 ;; Defined at:
   615 ;;		line 28 in file "C:\Program Files (x86)\Microchip\xc8\v1.34\sources\common\lwtoft.c"
   616 ;; Parameters:    Size  Location     Type
   617 ;;  c               2    8[COMMON] unsigned int 
   618 ;; Auto vars:     Size  Location     Type
   619 ;;		None
   620 ;; Return value:  Size  Location     Type
   621 ;;                  3    8[COMMON] float 
   622 ;; Registers used:
   623 ;;		wreg, status,2, status,0, pclath, cstack
   624 ;; Tracked objects:
   625 ;;		On entry : 0/0
   626 ;;		On exit  : 0/0
   627 ;;		Unchanged: 0/0
   628 ;; Data sizes:     COMMON   BANK0   BANK1   BANK3   BANK2
   629 ;;      Params:         3       0       0       0       0
   630 ;;      Locals:         0       0       0       0       0
   631 ;;      Temps:          1       0       0       0       0
   632 ;;      Totals:         4       0       0       0       0
   633 ;;Total ram usage:        4 bytes
   634 ;; Hardware stack levels used:    1
   635 ;; Hardware stack levels required when called:    1
   636 ;; This function calls:
   637 ;;		___ftpack
   638 ;; This function is called by:
   639 ;;		_calc_dist
   640 ;; This function uses a non-reentrant model
   641 ;;
   642                           
   643                           
   644                           ;psect for function ___lwtoft
   645  0502                     ___lwtoft:	
   646                           
   647                           ;incstack = 0
   648                           ; Regs used in ___lwtoft: [wreg+status,2+status,0+pclath+cstack]
   649  0502  0878               	movf	___lwtoft@c,w
   650  0503  00F0               	movwf	___ftpack@arg
   651  0504  0879               	movf	___lwtoft@c+1,w
   652  0505  00F1               	movwf	___ftpack@arg+1
   653  0506  01F2               	clrf	___ftpack@arg+2
   654  0507  308E               	movlw	142
   655  0508  00FB               	movwf	??___lwtoft
   656  0509  087B               	movf	??___lwtoft,w
   657  050A  00F3               	movwf	___ftpack@exp
   658  050B  01F4               	clrf	___ftpack@sign
   659  050C  120A  118A  25BF   	fcall	___ftpack
   660  050F  0870               	movf	?___ftpack,w
   661  0510  00F8               	movwf	?___lwtoft
   662  0511  0871               	movf	?___ftpack+1,w
   663  0512  00F9               	movwf	?___lwtoft+1
   664  0513  0872               	movf	?___ftpack+2,w
   665  0514  00FA               	movwf	?___lwtoft+2
   666  0515  0008               	return
   667  0516                     __end_of___lwtoft:	
   668                           
   669                           	psect	text3
   670  06B6                     __ptext3:	
   671 ;; *************** function ___fttol *****************
   672 ;; Defined at:
   673 ;;		line 44 in file "C:\Program Files (x86)\Microchip\xc8\v1.34\sources\common\fttol.c"
   674 ;; Parameters:    Size  Location     Type
   675 ;;  f1              3   16[BANK0 ] float 
   676 ;; Auto vars:     Size  Location     Type
   677 ;;  lval            4   25[BANK0 ] unsigned long 
   678 ;;  exp1            1   29[BANK0 ] unsigned char 
   679 ;;  sign1           1   24[BANK0 ] unsigned char 
   680 ;; Return value:  Size  Location     Type
   681 ;;                  4   16[BANK0 ] long 
   682 ;; Registers used:
   683 ;;		wreg, status,2, status,0
   684 ;; Tracked objects:
   685 ;;		On entry : 0/0
   686 ;;		On exit  : 0/0
   687 ;;		Unchanged: 0/0
   688 ;; Data sizes:     COMMON   BANK0   BANK1   BANK3   BANK2
   689 ;;      Params:         0       4       0       0       0
   690 ;;      Locals:         0       6       0       0       0
   691 ;;      Temps:          0       4       0       0       0
   692 ;;      Totals:         0      14       0       0       0
   693 ;;Total ram usage:       14 bytes
   694 ;; Hardware stack levels used:    1
   695 ;; This function calls:
   696 ;;		Nothing
   697 ;; This function is called by:
   698 ;;		_calc_dist
   699 ;; This function uses a non-reentrant model
   700 ;;
   701                           
   702                           
   703                           ;psect for function ___fttol
   704  06B6                     ___fttol:	
   705                           
   706                           ;incstack = 0
   707                           ; Regs used in ___fttol: [wreg+status,2+status,0]
   708  06B6  1283               	bcf	3,5	;RP0=0, select bank0
   709  06B7  1303               	bcf	3,6	;RP1=0, select bank0
   710  06B8  0830               	movf	___fttol@f1,w
   711  06B9  00B4               	movwf	??___fttol
   712  06BA  0831               	movf	___fttol@f1+1,w
   713  06BB  00B5               	movwf	??___fttol+1
   714  06BC  0832               	movf	___fttol@f1+2,w
   715  06BD  00B6               	movwf	??___fttol+2
   716  06BE  1003               	clrc
   717  06BF  0D35               	rlf	??___fttol+1,w
   718  06C0  0D36               	rlf	??___fttol+2,w
   719  06C1  00B7               	movwf	??___fttol+3
   720  06C2  0837               	movf	??___fttol+3,w
   721  06C3  00BD               	movwf	___fttol@exp1
   722  06C4  083D               	movf	___fttol@exp1,w
   723  06C5  1D03               	btfss	3,2
   724  06C6  2ED0               	goto	l810
   725  06C7  3000               	movlw	0
   726  06C8  00B3               	movwf	?___fttol+3
   727  06C9  3000               	movlw	0
   728  06CA  00B2               	movwf	?___fttol+2
   729  06CB  3000               	movlw	0
   730  06CC  00B1               	movwf	?___fttol+1
   731  06CD  3000               	movlw	0
   732  06CE  00B0               	movwf	?___fttol
   733  06CF  0008               	return
   734  06D0                     l810:	
   735  06D0  0830               	movf	___fttol@f1,w
   736  06D1  00B4               	movwf	??___fttol
   737  06D2  0831               	movf	___fttol@f1+1,w
   738  06D3  00B5               	movwf	??___fttol+1
   739  06D4  0832               	movf	___fttol@f1+2,w
   740  06D5  00B6               	movwf	??___fttol+2
   741  06D6  3017               	movlw	23
   742  06D7                     u705:	
   743  06D7  1003               	clrc
   744  06D8  0CB6               	rrf	??___fttol+2,f
   745  06D9  0CB5               	rrf	??___fttol+1,f
   746  06DA  0CB4               	rrf	??___fttol,f
   747  06DB  3EFF               	addlw	-1
   748  06DC  1D03               	skipz
   749  06DD  2ED7               	goto	u705
   750  06DE  0834               	movf	??___fttol,w
   751  06DF  00B7               	movwf	??___fttol+3
   752  06E0  0837               	movf	??___fttol+3,w
   753  06E1  00B8               	movwf	___fttol@sign1
   754  06E2  17B1               	bsf	___fttol@f1+1,7
   755  06E3  30FF               	movlw	255
   756  06E4  05B0               	andwf	___fttol@f1,f
   757  06E5  30FF               	movlw	255
   758  06E6  05B1               	andwf	___fttol@f1+1,f
   759  06E7  3000               	movlw	0
   760  06E8  05B2               	andwf	___fttol@f1+2,f
   761  06E9  0830               	movf	___fttol@f1,w
   762  06EA  00B9               	movwf	___fttol@lval
   763  06EB  0831               	movf	___fttol@f1+1,w
   764  06EC  00BA               	movwf	___fttol@lval+1
   765  06ED  0832               	movf	___fttol@f1+2,w
   766  06EE  00BB               	movwf	___fttol@lval+2
   767  06EF  01BC               	clrf	___fttol@lval+3
   768  06F0  308E               	movlw	142
   769  06F1  02BD               	subwf	___fttol@exp1,f
   770  06F2  1FBD               	btfss	___fttol@exp1,7
   771  06F3  2F12               	goto	l830
   772  06F4  083D               	movf	___fttol@exp1,w
   773  06F5  3A80               	xorlw	128
   774  06F6  3E8F               	addlw	143
   775  06F7  1803               	skipnc
   776  06F8  2F02               	goto	l828
   777  06F9  3000               	movlw	0
   778  06FA  00B3               	movwf	?___fttol+3
   779  06FB  3000               	movlw	0
   780  06FC  00B2               	movwf	?___fttol+2
   781  06FD  3000               	movlw	0
   782  06FE  00B1               	movwf	?___fttol+1
   783  06FF  3000               	movlw	0
   784  0700  00B0               	movwf	?___fttol
   785  0701  0008               	return
   786  0702                     l828:	
   787  0702  3001               	movlw	1
   788  0703                     u735:	
   789  0703  1003               	clrc
   790  0704  0CBC               	rrf	___fttol@lval+3,f
   791  0705  0CBB               	rrf	___fttol@lval+2,f
   792  0706  0CBA               	rrf	___fttol@lval+1,f
   793  0707  0CB9               	rrf	___fttol@lval,f
   794  0708  3EFF               	addlw	-1
   795  0709  1D03               	skipz
   796  070A  2F03               	goto	u735
   797  070B  3001               	movlw	1
   798  070C  00B4               	movwf	??___fttol
   799  070D  0834               	movf	??___fttol,w
   800  070E  07BD               	addwf	___fttol@exp1,f
   801  070F  1903               	btfsc	3,2
   802  0710  2F2D               	goto	l838
   803  0711  2F02               	goto	l828
   804  0712                     l830:	
   805  0712  3018               	movlw	24
   806  0713  023D               	subwf	___fttol@exp1,w
   807  0714  1C03               	skipc
   808  0715  2F2A               	goto	l384
   809  0716  3000               	movlw	0
   810  0717  00B3               	movwf	?___fttol+3
   811  0718  3000               	movlw	0
   812  0719  00B2               	movwf	?___fttol+2
   813  071A  3000               	movlw	0
   814  071B  00B1               	movwf	?___fttol+1
   815  071C  3000               	movlw	0
   816  071D  00B0               	movwf	?___fttol
   817  071E  0008               	return
   818  071F                     l836:	
   819  071F  3001               	movlw	1
   820  0720  00B4               	movwf	??___fttol
   821  0721                     u765:	
   822  0721  1003               	clrc
   823  0722  0DB9               	rlf	___fttol@lval,f
   824  0723  0DBA               	rlf	___fttol@lval+1,f
   825  0724  0DBB               	rlf	___fttol@lval+2,f
   826  0725  0DBC               	rlf	___fttol@lval+3,f
   827  0726  0BB4               	decfsz	??___fttol,f
   828  0727  2F21               	goto	u765
   829  0728  3001               	movlw	1
   830  0729  02BD               	subwf	___fttol@exp1,f
   831  072A                     l384:	
   832  072A  083D               	movf	___fttol@exp1,w
   833  072B  1D03               	btfss	3,2
   834  072C  2F1F               	goto	l836
   835  072D                     l838:	
   836  072D  0838               	movf	___fttol@sign1,w
   837  072E  1903               	btfsc	3,2
   838  072F  2F3B               	goto	l842
   839  0730  09B9               	comf	___fttol@lval,f
   840  0731  09BA               	comf	___fttol@lval+1,f
   841  0732  09BB               	comf	___fttol@lval+2,f
   842  0733  09BC               	comf	___fttol@lval+3,f
   843  0734  0AB9               	incf	___fttol@lval,f
   844  0735  1903               	skipnz
   845  0736  0ABA               	incf	___fttol@lval+1,f
   846  0737  1903               	skipnz
   847  0738  0ABB               	incf	___fttol@lval+2,f
   848  0739  1903               	skipnz
   849  073A  0ABC               	incf	___fttol@lval+3,f
   850  073B                     l842:	
   851  073B  083C               	movf	___fttol@lval+3,w
   852  073C  00B3               	movwf	?___fttol+3
   853  073D  083B               	movf	___fttol@lval+2,w
   854  073E  00B2               	movwf	?___fttol+2
   855  073F  083A               	movf	___fttol@lval+1,w
   856  0740  00B1               	movwf	?___fttol+1
   857  0741  0839               	movf	___fttol@lval,w
   858  0742  00B0               	movwf	?___fttol
   859  0743  0008               	return
   860  0744                     __end_of___fttol:	
   861                           
   862                           	psect	text4
   863  0744                     __ptext4:	
   864 ;; *************** function ___ftdiv *****************
   865 ;; Defined at:
   866 ;;		line 56 in file "C:\Program Files (x86)\Microchip\xc8\v1.34\sources\common\ftdiv.c"
   867 ;; Parameters:    Size  Location     Type
   868 ;;  f2              3    0[BANK0 ] float 
   869 ;;  f1              3    3[BANK0 ] float 
   870 ;; Auto vars:     Size  Location     Type
   871 ;;  f3              3   11[BANK0 ] float 
   872 ;;  sign            1   15[BANK0 ] unsigned char 
   873 ;;  exp             1   14[BANK0 ] unsigned char 
   874 ;;  cntr            1   10[BANK0 ] unsigned char 
   875 ;; Return value:  Size  Location     Type
   876 ;;                  3    0[BANK0 ] float 
   877 ;; Registers used:
   878 ;;		wreg, status,2, status,0, pclath, cstack
   879 ;; Tracked objects:
   880 ;;		On entry : 0/0
   881 ;;		On exit  : 0/0
   882 ;;		Unchanged: 0/0
   883 ;; Data sizes:     COMMON   BANK0   BANK1   BANK3   BANK2
   884 ;;      Params:         0       6       0       0       0
   885 ;;      Locals:         0       6       0       0       0
   886 ;;      Temps:          0       4       0       0       0
   887 ;;      Totals:         0      16       0       0       0
   888 ;;Total ram usage:       16 bytes
   889 ;; Hardware stack levels used:    1
   890 ;; Hardware stack levels required when called:    1
   891 ;; This function calls:
   892 ;;		___ftpack
   893 ;; This function is called by:
   894 ;;		_calc_dist
   895 ;; This function uses a non-reentrant model
   896 ;;
   897                           
   898                           
   899                           ;psect for function ___ftdiv
   900  0744                     ___ftdiv:	
   901                           
   902                           ;incstack = 0
   903                           ; Regs used in ___ftdiv: [wreg+status,2+status,0+pclath+cstack]
   904  0744  1283               	bcf	3,5	;RP0=0, select bank0
   905  0745  1303               	bcf	3,6	;RP1=0, select bank0
   906  0746  0823               	movf	___ftdiv@f1,w
   907  0747  00A6               	movwf	??___ftdiv
   908  0748  0824               	movf	___ftdiv@f1+1,w
   909  0749  00A7               	movwf	??___ftdiv+1
   910  074A  0825               	movf	___ftdiv@f1+2,w
   911  074B  00A8               	movwf	??___ftdiv+2
   912  074C  1003               	clrc
   913  074D  0D27               	rlf	??___ftdiv+1,w
   914  074E  0D28               	rlf	??___ftdiv+2,w
   915  074F  00A9               	movwf	??___ftdiv+3
   916  0750  0829               	movf	??___ftdiv+3,w
   917  0751  00AE               	movwf	___ftdiv@exp
   918  0752  082E               	movf	___ftdiv@exp,w
   919  0753  1D03               	btfss	3,2
   920  0754  2F5C               	goto	l768
   921  0755  3000               	movlw	0
   922  0756  00A0               	movwf	?___ftdiv
   923  0757  3000               	movlw	0
   924  0758  00A1               	movwf	?___ftdiv+1
   925  0759  3000               	movlw	0
   926  075A  00A2               	movwf	?___ftdiv+2
   927  075B  0008               	return
   928  075C                     l768:	
   929  075C  0820               	movf	___ftdiv@f2,w
   930  075D  00A6               	movwf	??___ftdiv
   931  075E  0821               	movf	___ftdiv@f2+1,w
   932  075F  00A7               	movwf	??___ftdiv+1
   933  0760  0822               	movf	___ftdiv@f2+2,w
   934  0761  00A8               	movwf	??___ftdiv+2
   935  0762  1003               	clrc
   936  0763  0D27               	rlf	??___ftdiv+1,w
   937  0764  0D28               	rlf	??___ftdiv+2,w
   938  0765  00A9               	movwf	??___ftdiv+3
   939  0766  0829               	movf	??___ftdiv+3,w
   940  0767  00AF               	movwf	___ftdiv@sign
   941  0768  082F               	movf	___ftdiv@sign,w
   942  0769  1D03               	btfss	3,2
   943  076A  2F72               	goto	l774
   944  076B  3000               	movlw	0
   945  076C  00A0               	movwf	?___ftdiv
   946  076D  3000               	movlw	0
   947  076E  00A1               	movwf	?___ftdiv+1
   948  076F  3000               	movlw	0
   949  0770  00A2               	movwf	?___ftdiv+2
   950  0771  0008               	return
   951  0772                     l774:	
   952  0772  3000               	movlw	0
   953  0773  00AB               	movwf	___ftdiv@f3
   954  0774  3000               	movlw	0
   955  0775  00AC               	movwf	___ftdiv@f3+1
   956  0776  3000               	movlw	0
   957  0777  00AD               	movwf	___ftdiv@f3+2
   958  0778  3089               	movlw	137
   959  0779  072F               	addwf	___ftdiv@sign,w
   960  077A  00A6               	movwf	??___ftdiv
   961  077B  0826               	movf	??___ftdiv,w
   962  077C  02AE               	subwf	___ftdiv@exp,f
   963  077D  0823               	movf	___ftdiv@f1,w
   964  077E  00A6               	movwf	??___ftdiv
   965  077F  0824               	movf	___ftdiv@f1+1,w
   966  0780  00A7               	movwf	??___ftdiv+1
   967  0781  0825               	movf	___ftdiv@f1+2,w
   968  0782  00A8               	movwf	??___ftdiv+2
   969  0783  3010               	movlw	16
   970  0784                     u635:	
   971  0784  1003               	clrc
   972  0785  0CA8               	rrf	??___ftdiv+2,f
   973  0786  0CA7               	rrf	??___ftdiv+1,f
   974  0787  0CA6               	rrf	??___ftdiv,f
   975  0788  3EFF               	addlw	-1
   976  0789  1D03               	skipz
   977  078A  2F84               	goto	u635
   978  078B  0826               	movf	??___ftdiv,w
   979  078C  00A9               	movwf	??___ftdiv+3
   980  078D  0829               	movf	??___ftdiv+3,w
   981  078E  00AF               	movwf	___ftdiv@sign
   982  078F  0820               	movf	___ftdiv@f2,w
   983  0790  00A6               	movwf	??___ftdiv
   984  0791  0821               	movf	___ftdiv@f2+1,w
   985  0792  00A7               	movwf	??___ftdiv+1
   986  0793  0822               	movf	___ftdiv@f2+2,w
   987  0794  00A8               	movwf	??___ftdiv+2
   988  0795  3010               	movlw	16
   989  0796                     u645:	
   990  0796  1003               	clrc
   991  0797  0CA8               	rrf	??___ftdiv+2,f
   992  0798  0CA7               	rrf	??___ftdiv+1,f
   993  0799  0CA6               	rrf	??___ftdiv,f
   994  079A  3EFF               	addlw	-1
   995  079B  1D03               	skipz
   996  079C  2F96               	goto	u645
   997  079D  0826               	movf	??___ftdiv,w
   998  079E  00A9               	movwf	??___ftdiv+3
   999  079F  0829               	movf	??___ftdiv+3,w
  1000  07A0  06AF               	xorwf	___ftdiv@sign,f
  1001  07A1  3080               	movlw	128
  1002  07A2  00A6               	movwf	??___ftdiv
  1003  07A3  0826               	movf	??___ftdiv,w
  1004  07A4  05AF               	andwf	___ftdiv@sign,f
  1005  07A5  17A4               	bsf	___ftdiv@f1+1,7
  1006  07A6  30FF               	movlw	255
  1007  07A7  05A3               	andwf	___ftdiv@f1,f
  1008  07A8  30FF               	movlw	255
  1009  07A9  05A4               	andwf	___ftdiv@f1+1,f
  1010  07AA  3000               	movlw	0
  1011  07AB  05A5               	andwf	___ftdiv@f1+2,f
  1012  07AC  17A1               	bsf	___ftdiv@f2+1,7
  1013  07AD  30FF               	movlw	255
  1014  07AE  05A0               	andwf	___ftdiv@f2,f
  1015  07AF  30FF               	movlw	255
  1016  07B0  05A1               	andwf	___ftdiv@f2+1,f
  1017  07B1  3000               	movlw	0
  1018  07B2  05A2               	andwf	___ftdiv@f2+2,f
  1019  07B3  3018               	movlw	24
  1020  07B4  00A6               	movwf	??___ftdiv
  1021  07B5  0826               	movf	??___ftdiv,w
  1022  07B6  00AA               	movwf	___ftdiv@cntr
  1023  07B7                     l788:	
  1024  07B7  3001               	movlw	1
  1025  07B8                     u655:	
  1026  07B8  1003               	clrc
  1027  07B9  0DAB               	rlf	___ftdiv@f3,f
  1028  07BA  0DAC               	rlf	___ftdiv@f3+1,f
  1029  07BB  0DAD               	rlf	___ftdiv@f3+2,f
  1030  07BC  3EFF               	addlw	-1
  1031  07BD  1D03               	skipz
  1032  07BE  2FB8               	goto	u655
  1033  07BF  0822               	movf	___ftdiv@f2+2,w
  1034  07C0  0225               	subwf	___ftdiv@f1+2,w
  1035  07C1  1D03               	skipz
  1036  07C2  2FC9               	goto	u665
  1037  07C3  0821               	movf	___ftdiv@f2+1,w
  1038  07C4  0224               	subwf	___ftdiv@f1+1,w
  1039  07C5  1D03               	skipz
  1040  07C6  2FC9               	goto	u665
  1041  07C7  0820               	movf	___ftdiv@f2,w
  1042  07C8  0223               	subwf	___ftdiv@f1,w
  1043  07C9                     u665:	
  1044  07C9  1C03               	skipc
  1045  07CA  2FD6               	goto	l796
  1046  07CB  0820               	movf	___ftdiv@f2,w
  1047  07CC  02A3               	subwf	___ftdiv@f1,f
  1048  07CD  0821               	movf	___ftdiv@f2+1,w
  1049  07CE  1C03               	skipc
  1050  07CF  0F21               	incfsz	___ftdiv@f2+1,w
  1051  07D0  02A4               	subwf	___ftdiv@f1+1,f
  1052  07D1  0822               	movf	___ftdiv@f2+2,w
  1053  07D2  1C03               	skipc
  1054  07D3  0A22               	incf	___ftdiv@f2+2,w
  1055  07D4  02A5               	subwf	___ftdiv@f1+2,f
  1056  07D5  142B               	bsf	___ftdiv@f3,0
  1057  07D6                     l796:	
  1058  07D6  3001               	movlw	1
  1059  07D7                     u675:	
  1060  07D7  1003               	clrc
  1061  07D8  0DA3               	rlf	___ftdiv@f1,f
  1062  07D9  0DA4               	rlf	___ftdiv@f1+1,f
  1063  07DA  0DA5               	rlf	___ftdiv@f1+2,f
  1064  07DB  3EFF               	addlw	-1
  1065  07DC  1D03               	skipz
  1066  07DD  2FD7               	goto	u675
  1067  07DE  3001               	movlw	1
  1068  07DF  02AA               	subwf	___ftdiv@cntr,f
  1069  07E0  1D03               	btfss	3,2
  1070  07E1  2FB7               	goto	l788
  1071  07E2  082B               	movf	___ftdiv@f3,w
  1072  07E3  00F0               	movwf	___ftpack@arg
  1073  07E4  082C               	movf	___ftdiv@f3+1,w
  1074  07E5  00F1               	movwf	___ftpack@arg+1
  1075  07E6  082D               	movf	___ftdiv@f3+2,w
  1076  07E7  00F2               	movwf	___ftpack@arg+2
  1077  07E8  082E               	movf	___ftdiv@exp,w
  1078  07E9  00A6               	movwf	??___ftdiv
  1079  07EA  0826               	movf	??___ftdiv,w
  1080  07EB  00F3               	movwf	___ftpack@exp
  1081  07EC  082F               	movf	___ftdiv@sign,w
  1082  07ED  00A7               	movwf	??___ftdiv+1
  1083  07EE  0827               	movf	??___ftdiv+1,w
  1084  07EF  00F4               	movwf	___ftpack@sign
  1085  07F0  120A  118A  25BF   	fcall	___ftpack
  1086  07F3  0870               	movf	?___ftpack,w
  1087  07F4  1283               	bcf	3,5	;RP0=0, select bank0
  1088  07F5  1303               	bcf	3,6	;RP1=0, select bank0
  1089  07F6  00A0               	movwf	?___ftdiv
  1090  07F7  0871               	movf	?___ftpack+1,w
  1091  07F8  00A1               	movwf	?___ftdiv+1
  1092  07F9  0872               	movf	?___ftpack+2,w
  1093  07FA  00A2               	movwf	?___ftdiv+2
  1094  07FB  0008               	return
  1095  07FC                     __end_of___ftdiv:	
  1096                           
  1097                           	psect	text5
  1098  05BF                     __ptext5:	
  1099 ;; *************** function ___ftpack *****************
  1100 ;; Defined at:
  1101 ;;		line 62 in file "C:\Program Files (x86)\Microchip\xc8\v1.34\sources\common\float.c"
  1102 ;; Parameters:    Size  Location     Type
  1103 ;;  arg             3    0[COMMON] unsigned um
  1104 ;;  exp             1    3[COMMON] unsigned char 
  1105 ;;  sign            1    4[COMMON] unsigned char 
  1106 ;; Auto vars:     Size  Location     Type
  1107 ;;		None
  1108 ;; Return value:  Size  Location     Type
  1109 ;;                  3    0[COMMON] float 
  1110 ;; Registers used:
  1111 ;;		wreg, status,2, status,0
  1112 ;; Tracked objects:
  1113 ;;		On entry : 0/0
  1114 ;;		On exit  : 0/0
  1115 ;;		Unchanged: 0/0
  1116 ;; Data sizes:     COMMON   BANK0   BANK1   BANK3   BANK2
  1117 ;;      Params:         5       0       0       0       0
  1118 ;;      Locals:         0       0       0       0       0
  1119 ;;      Temps:          3       0       0       0       0
  1120 ;;      Totals:         8       0       0       0       0
  1121 ;;Total ram usage:        8 bytes
  1122 ;; Hardware stack levels used:    1
  1123 ;; This function calls:
  1124 ;;		Nothing
  1125 ;; This function is called by:
  1126 ;;		___ftdiv
  1127 ;;		___lwtoft
  1128 ;; This function uses a non-reentrant model
  1129 ;;
  1130                           
  1131                           
  1132                           ;psect for function ___ftpack
  1133  05BF                     ___ftpack:	
  1134                           
  1135                           ;incstack = 0
  1136                           ; Regs used in ___ftpack: [wreg+status,2+status,0]
  1137  05BF  0873               	movf	___ftpack@exp,w
  1138  05C0  1903               	btfsc	3,2
  1139  05C1  2DC7               	goto	l734
  1140  05C2  0872               	movf	___ftpack@arg+2,w
  1141  05C3  0471               	iorwf	___ftpack@arg+1,w
  1142  05C4  0470               	iorwf	___ftpack@arg,w
  1143  05C5  1D03               	skipz
  1144  05C6  2DDA               	goto	l740
  1145  05C7                     l734:	
  1146  05C7  3000               	movlw	0
  1147  05C8  00F0               	movwf	?___ftpack
  1148  05C9  3000               	movlw	0
  1149  05CA  00F1               	movwf	?___ftpack+1
  1150  05CB  3000               	movlw	0
  1151  05CC  00F2               	movwf	?___ftpack+2
  1152  05CD  0008               	return
  1153  05CE                     l738:	
  1154  05CE  3001               	movlw	1
  1155  05CF  00F5               	movwf	??___ftpack
  1156  05D0  0875               	movf	??___ftpack,w
  1157  05D1  07F3               	addwf	___ftpack@exp,f
  1158  05D2  3001               	movlw	1
  1159  05D3                     u515:	
  1160  05D3  1003               	clrc
  1161  05D4  0CF2               	rrf	___ftpack@arg+2,f
  1162  05D5  0CF1               	rrf	___ftpack@arg+1,f
  1163  05D6  0CF0               	rrf	___ftpack@arg,f
  1164  05D7  3EFF               	addlw	-1
  1165  05D8  1D03               	skipz
  1166  05D9  2DD3               	goto	u515
  1167  05DA                     l740:	
  1168  05DA  30FE               	movlw	254
  1169  05DB  0572               	andwf	___ftpack@arg+2,w
  1170  05DC  1903               	btfsc	3,2
  1171  05DD  2DF5               	goto	l293
  1172  05DE  2DCE               	goto	l738
  1173  05DF                     l742:	
  1174  05DF  3001               	movlw	1
  1175  05E0  00F5               	movwf	??___ftpack
  1176  05E1  0875               	movf	??___ftpack,w
  1177  05E2  07F3               	addwf	___ftpack@exp,f
  1178  05E3  3001               	movlw	1
  1179  05E4  07F0               	addwf	___ftpack@arg,f
  1180  05E5  3000               	movlw	0
  1181  05E6  1803               	skipnc
  1182  05E7  3001               	movlw	1
  1183  05E8  07F1               	addwf	___ftpack@arg+1,f
  1184  05E9  3000               	movlw	0
  1185  05EA  1803               	skipnc
  1186  05EB  3001               	movlw	1
  1187  05EC  07F2               	addwf	___ftpack@arg+2,f
  1188  05ED  3001               	movlw	1
  1189  05EE                     u535:	
  1190  05EE  1003               	clrc
  1191  05EF  0CF2               	rrf	___ftpack@arg+2,f
  1192  05F0  0CF1               	rrf	___ftpack@arg+1,f
  1193  05F1  0CF0               	rrf	___ftpack@arg,f
  1194  05F2  3EFF               	addlw	-1
  1195  05F3  1D03               	skipz
  1196  05F4  2DEE               	goto	u535
  1197  05F5                     l293:	
  1198  05F5  30FF               	movlw	255
  1199  05F6  0572               	andwf	___ftpack@arg+2,w
  1200  05F7  1903               	btfsc	3,2
  1201  05F8  2E08               	goto	l750
  1202  05F9  2DDF               	goto	l742
  1203  05FA                     l752:	
  1204  05FA  3002               	movlw	2
  1205  05FB  0273               	subwf	___ftpack@exp,w
  1206  05FC  1C03               	btfss	3,0
  1207  05FD  2E0A               	goto	l300
  1208  05FE  3001               	movlw	1
  1209  05FF  02F3               	subwf	___ftpack@exp,f
  1210  0600  3001               	movlw	1
  1211  0601                     u555:	
  1212  0601  1003               	clrc
  1213  0602  0DF0               	rlf	___ftpack@arg,f
  1214  0603  0DF1               	rlf	___ftpack@arg+1,f
  1215  0604  0DF2               	rlf	___ftpack@arg+2,f
  1216  0605  3EFF               	addlw	-1
  1217  0606  1D03               	skipz
  1218  0607  2E01               	goto	u555
  1219  0608                     l750:	
  1220  0608  1FF1               	btfss	___ftpack@arg+1,7
  1221  0609  2DFA               	goto	l752
  1222  060A                     l300:	
  1223  060A  1873               	btfsc	___ftpack@exp,0
  1224  060B  2E12               	goto	l301
  1225  060C  30FF               	movlw	255
  1226  060D  05F0               	andwf	___ftpack@arg,f
  1227  060E  307F               	movlw	127
  1228  060F  05F1               	andwf	___ftpack@arg+1,f
  1229  0610  30FF               	movlw	255
  1230  0611  05F2               	andwf	___ftpack@arg+2,f
  1231  0612                     l301:	
  1232  0612  1003               	clrc
  1233  0613  0CF3               	rrf	___ftpack@exp,f
  1234  0614  0873               	movf	___ftpack@exp,w
  1235  0615  00F5               	movwf	??___ftpack
  1236  0616  01F6               	clrf	??___ftpack+1
  1237  0617  01F7               	clrf	??___ftpack+2
  1238  0618  3010               	movlw	16
  1239  0619                     u595:	
  1240  0619  1003               	clrc
  1241  061A  0DF5               	rlf	??___ftpack,f
  1242  061B  0DF6               	rlf	??___ftpack+1,f
  1243  061C  0DF7               	rlf	??___ftpack+2,f
  1244  061D  3EFF               	addlw	-1
  1245  061E  1D03               	skipz
  1246  061F  2E19               	goto	u595
  1247  0620  0875               	movf	??___ftpack,w
  1248  0621  04F0               	iorwf	___ftpack@arg,f
  1249  0622  0876               	movf	??___ftpack+1,w
  1250  0623  04F1               	iorwf	___ftpack@arg+1,f
  1251  0624  0877               	movf	??___ftpack+2,w
  1252  0625  04F2               	iorwf	___ftpack@arg+2,f
  1253  0626  0874               	movf	___ftpack@sign,w
  1254  0627  1903               	btfsc	3,2
  1255  0628  0008               	return
  1256  0629  17F2               	bsf	___ftpack@arg+2,7
  1257  062A  0008               	return
  1258  062B                     __end_of___ftpack:	
  1259                           
  1260                           	psect	text6
  1261  0564                     __ptext6:	
  1262 ;; *************** function ___awdiv *****************
  1263 ;; Defined at:
  1264 ;;		line 6 in file "C:\Program Files (x86)\Microchip\xc8\v1.34\sources\common\awdiv.c"
  1265 ;; Parameters:    Size  Location     Type
  1266 ;;  divisor         2   30[BANK0 ] int 
  1267 ;;  dividend        2   32[BANK0 ] int 
  1268 ;; Auto vars:     Size  Location     Type
  1269 ;;  quotient        2   37[BANK0 ] int 
  1270 ;;  sign            1   36[BANK0 ] unsigned char 
  1271 ;;  counter         1   35[BANK0 ] unsigned char 
  1272 ;; Return value:  Size  Location     Type
  1273 ;;                  2   30[BANK0 ] int 
  1274 ;; Registers used:
  1275 ;;		wreg, status,2, status,0
  1276 ;; Tracked objects:
  1277 ;;		On entry : 0/0
  1278 ;;		On exit  : 0/0
  1279 ;;		Unchanged: 0/0
  1280 ;; Data sizes:     COMMON   BANK0   BANK1   BANK3   BANK2
  1281 ;;      Params:         0       4       0       0       0
  1282 ;;      Locals:         0       4       0       0       0
  1283 ;;      Temps:          0       1       0       0       0
  1284 ;;      Totals:         0       9       0       0       0
  1285 ;;Total ram usage:        9 bytes
  1286 ;; Hardware stack levels used:    1
  1287 ;; This function calls:
  1288 ;;		Nothing
  1289 ;; This function is called by:
  1290 ;;		_main
  1291 ;; This function uses a non-reentrant model
  1292 ;;
  1293                           
  1294                           
  1295                           ;psect for function ___awdiv
  1296  0564                     ___awdiv:	
  1297                           
  1298                           ;incstack = 0
  1299                           ; Regs used in ___awdiv: [wreg+status,2+status,0]
  1300  0564  1283               	bcf	3,5	;RP0=0, select bank0
  1301  0565  1303               	bcf	3,6	;RP1=0, select bank0
  1302  0566  01C4               	clrf	___awdiv@sign
  1303  0567  1FBF               	btfss	___awdiv@divisor+1,7
  1304  0568  2D70               	goto	l882
  1305  0569  09BE               	comf	___awdiv@divisor,f
  1306  056A  09BF               	comf	___awdiv@divisor+1,f
  1307  056B  0ABE               	incf	___awdiv@divisor,f
  1308  056C  1903               	skipnz
  1309  056D  0ABF               	incf	___awdiv@divisor+1,f
  1310  056E  01C4               	clrf	___awdiv@sign
  1311  056F  0AC4               	incf	___awdiv@sign,f
  1312  0570                     l882:	
  1313  0570  1FC1               	btfss	___awdiv@dividend+1,7
  1314  0571  2D7B               	goto	l888
  1315  0572  09C0               	comf	___awdiv@dividend,f
  1316  0573  09C1               	comf	___awdiv@dividend+1,f
  1317  0574  0AC0               	incf	___awdiv@dividend,f
  1318  0575  1903               	skipnz
  1319  0576  0AC1               	incf	___awdiv@dividend+1,f
  1320  0577  3001               	movlw	1
  1321  0578  00C2               	movwf	??___awdiv
  1322  0579  0842               	movf	??___awdiv,w
  1323  057A  06C4               	xorwf	___awdiv@sign,f
  1324  057B                     l888:	
  1325  057B  01C5               	clrf	___awdiv@quotient
  1326  057C  01C6               	clrf	___awdiv@quotient+1
  1327  057D  083E               	movf	___awdiv@divisor,w
  1328  057E  043F               	iorwf	___awdiv@divisor+1,w
  1329  057F  1903               	btfsc	3,2
  1330  0580  2DB2               	goto	l910
  1331  0581  01C3               	clrf	___awdiv@counter
  1332  0582  0AC3               	incf	___awdiv@counter,f
  1333  0583                     l898:	
  1334  0583  1BBF               	btfsc	___awdiv@divisor+1,7
  1335  0584  2D91               	goto	l900
  1336  0585  3001               	movlw	1
  1337  0586                     u865:	
  1338  0586  1003               	clrc
  1339  0587  0DBE               	rlf	___awdiv@divisor,f
  1340  0588  0DBF               	rlf	___awdiv@divisor+1,f
  1341  0589  3EFF               	addlw	-1
  1342  058A  1D03               	skipz
  1343  058B  2D86               	goto	u865
  1344  058C  3001               	movlw	1
  1345  058D  00C2               	movwf	??___awdiv
  1346  058E  0842               	movf	??___awdiv,w
  1347  058F  07C3               	addwf	___awdiv@counter,f
  1348  0590  2D83               	goto	l898
  1349  0591                     l900:	
  1350  0591  3001               	movlw	1
  1351  0592                     u885:	
  1352  0592  1003               	clrc
  1353  0593  0DC5               	rlf	___awdiv@quotient,f
  1354  0594  0DC6               	rlf	___awdiv@quotient+1,f
  1355  0595  3EFF               	addlw	-1
  1356  0596  1D03               	skipz
  1357  0597  2D92               	goto	u885
  1358  0598  083F               	movf	___awdiv@divisor+1,w
  1359  0599  0241               	subwf	___awdiv@dividend+1,w
  1360  059A  1D03               	skipz
  1361  059B  2D9E               	goto	u895
  1362  059C  083E               	movf	___awdiv@divisor,w
  1363  059D  0240               	subwf	___awdiv@dividend,w
  1364  059E                     u895:	
  1365  059E  1C03               	skipc
  1366  059F  2DA7               	goto	l906
  1367  05A0  083E               	movf	___awdiv@divisor,w
  1368  05A1  02C0               	subwf	___awdiv@dividend,f
  1369  05A2  083F               	movf	___awdiv@divisor+1,w
  1370  05A3  1C03               	skipc
  1371  05A4  03C1               	decf	___awdiv@dividend+1,f
  1372  05A5  02C1               	subwf	___awdiv@dividend+1,f
  1373  05A6  1445               	bsf	___awdiv@quotient,0
  1374  05A7                     l906:	
  1375  05A7  3001               	movlw	1
  1376  05A8                     u905:	
  1377  05A8  1003               	clrc
  1378  05A9  0CBF               	rrf	___awdiv@divisor+1,f
  1379  05AA  0CBE               	rrf	___awdiv@divisor,f
  1380  05AB  3EFF               	addlw	-1
  1381  05AC  1D03               	skipz
  1382  05AD  2DA8               	goto	u905
  1383  05AE  3001               	movlw	1
  1384  05AF  02C3               	subwf	___awdiv@counter,f
  1385  05B0  1D03               	btfss	3,2
  1386  05B1  2D91               	goto	l900
  1387  05B2                     l910:	
  1388  05B2  0844               	movf	___awdiv@sign,w
  1389  05B3  1903               	btfsc	3,2
  1390  05B4  2DBA               	goto	l914
  1391  05B5  09C5               	comf	___awdiv@quotient,f
  1392  05B6  09C6               	comf	___awdiv@quotient+1,f
  1393  05B7  0AC5               	incf	___awdiv@quotient,f
  1394  05B8  1903               	skipnz
  1395  05B9  0AC6               	incf	___awdiv@quotient+1,f
  1396  05BA                     l914:	
  1397  05BA  0846               	movf	___awdiv@quotient+1,w
  1398  05BB  00BF               	movwf	?___awdiv+1
  1399  05BC  0845               	movf	___awdiv@quotient,w
  1400  05BD  00BE               	movwf	?___awdiv
  1401  05BE  0008               	return
  1402  05BF                     __end_of___awdiv:	
  1403  007E                     btemp	set	126	;btemp
  1404  007E                     wtemp	set	126
  1405  007E                     wtemp0	set	126
  1406  0080                     wtemp1	set	128
  1407  0082                     wtemp2	set	130
  1408  0084                     wtemp3	set	132
  1409  0086                     wtemp4	set	134
  1410  0088                     wtemp5	set	136
  1411  007F                     wtemp6	set	127
  1412  007E                     ttemp	set	126
  1413  007E                     ttemp0	set	126
  1414  0081                     ttemp1	set	129
  1415  0084                     ttemp2	set	132
  1416  0087                     ttemp3	set	135
  1417  007F                     ttemp4	set	127
  1418  007E                     ltemp	set	126
  1419  007E                     ltemp0	set	126
  1420  0082                     ltemp1	set	130
  1421  0086                     ltemp2	set	134
  1422  0080                     ltemp3	set	128


Data Sizes:
    Strings     0
    Constant    0
    Data        0
    BSS         0
    Persistent  0
    Stack       0

Auto Spaces:
    Space          Size  Autos    Used
    COMMON           14     14      14
    BANK0            80     43      43
    BANK1            80      0       0
    BANK3            96      0       0
    BANK2            96      0       0

Pointer List with Targets:

    None.

Critical Paths under _main in COMMON

    _main->_calc_dist
    _calc_dist->___lwtoft
    ___lwtoft->___ftpack
    ___fttol->___lwtoft
    ___ftdiv->___lwtoft
    ___awdiv->_calc_dist

Critical Paths under _main in BANK0

    _main->___awdiv
    _calc_dist->___fttol
    ___fttol->___ftdiv

Critical Paths under _main in BANK1

    None.

Critical Paths under _main in BANK3

    None.

Critical Paths under _main in BANK2

    None.

Call Graph Tables:

 ---------------------------------------------------------------------------------
 (Depth) Function   	        Calls       Base Space   Used Autos Params    Refs
 ---------------------------------------------------------------------------------
 (0) _main                                                 4     4      0    4588
                                             39 BANK0      4     4      0
                            ___awdiv
                          _calc_dist
 ---------------------------------------------------------------------------------
 (1) _calc_dist                                            2     2      0    4092
                                             12 COMMON     2     2      0
                            ___ftdiv
                            ___fttol
                           ___lwtoft
 ---------------------------------------------------------------------------------
 (2) ___lwtoft                                             4     1      3    1704
                                              8 COMMON     4     1      3
                           ___ftpack
 ---------------------------------------------------------------------------------
 (2) ___fttol                                             14    10      4     305
                                             16 BANK0     14    10      4
                            ___ftdiv (ARG)
                           ___lwtoft (ARG)
 ---------------------------------------------------------------------------------
 (2) ___ftdiv                                             16    10      6    2015
                                              0 BANK0     16    10      6
                           ___ftpack
                           ___lwtoft (ARG)
 ---------------------------------------------------------------------------------
 (3) ___ftpack                                             8     3      5    1629
                                              0 COMMON     8     3      5
 ---------------------------------------------------------------------------------
 (1) ___awdiv                                              9     5      4     406
                                             30 BANK0      9     5      4
                          _calc_dist (ARG)
 ---------------------------------------------------------------------------------
 Estimated maximum stack depth 3
 ---------------------------------------------------------------------------------

 Call Graph Graphs:

 _main (ROOT)
   ___awdiv
     _calc_dist (ARG)
       ___ftdiv
         ___ftpack
         ___lwtoft (ARG)
           ___ftpack
       ___fttol
         ___ftdiv (ARG)
           ___ftpack
           ___lwtoft (ARG)
             ___ftpack
         ___lwtoft (ARG)
           ___ftpack
       ___lwtoft
         ___ftpack
   _calc_dist
     ___ftdiv
       ___ftpack
       ___lwtoft (ARG)
         ___ftpack
     ___fttol
       ___ftdiv (ARG)
         ___ftpack
         ___lwtoft (ARG)
           ___ftpack
       ___lwtoft (ARG)
         ___ftpack
     ___lwtoft
       ___ftpack

 Address spaces:
Name               Size   Autos  Total    Cost      Usage
BITCOMMON            E      0       0       0        0.0%
EEDATA             100      0       0       0        0.0%
NULL                 0      0       0       0        0.0%
CODE                 0      0       0       0        0.0%
COMMON               E      E       E       1      100.0%
BITSFR0              0      0       0       1        0.0%
SFR0                 0      0       0       1        0.0%
BITSFR1              0      0       0       2        0.0%
SFR1                 0      0       0       2        0.0%
STACK                0      0       0       2        0.0%
ABS                  0      0       0       3        0.0%
BITBANK0            50      0       0       4        0.0%
BITSFR3              0      0       0       4        0.0%
SFR3                 0      0       0       4        0.0%
BANK0               50     2B      2B       5       53.8%
BITSFR2              0      0       0       5        0.0%
SFR2                 0      0       0       5        0.0%
BITBANK1            50      0       0       6        0.0%
BANK1               50      0       0       7        0.0%
BITBANK3            60      0       0       8        0.0%
BANK3               60      0       0       9        0.0%
BITBANK2            60      0       0      10        0.0%
BANK2               60      0       0      11        0.0%
DATA                 0      0       0      12        0.0%


Microchip Technology PIC Macro Assembler V1.34 build -361300703 
Symbol Table                                                                                   Fri Sep 29 18:28:45 2017

            __CFG_CP$OFF 0000                       l40 0523                       l43 0526  
           ___awdiv@sign 0044                      l300 060A                      l301 0612  
                    l293 05F5                      l384 072A                      l810 06D0  
                    l900 0591                      l740 05DA                      l910 05B2  
                    l750 0608                      l742 05DF                      l734 05C7  
                    l830 0712                      l752 05FA                      l914 05BA  
                    l906 05A7                      l738 05CE                      l842 073B  
                    l836 071F                      l828 0702                      l932 0642  
                    l774 0772                      l838 072D                      l870 0562  
                    l950 06B2                      l942 0687                      l768 075C  
                    l882 0570                      l946 069C                      l938 0672  
                    l796 07D6                      l788 07B7                      l888 057B  
                    l898 0583                      _RC2 003A                      _RC3 003B  
           __CFG_CPD$OFF 0000                      u515 05D3                      u535 05EE  
                    u705 06D7                      u555 0601                      u635 0784  
                    u645 0796                      u655 07B8                      u735 0703  
                    u905 05A8                      u665 07C9                      u595 0619  
                    u675 07D7                      u765 0721                      u865 0586  
                    u885 0592                      u895 059E                      u977 066B  
                    u987 0680                      u997 0695             __CFG_FOSC$XT 0000  
           __CFG_LVP$OFF 0000             ___ftdiv@cntr 002A             ___ftdiv@sign 002F  
                   u1007 06AA                     u1017 051E                     _TMR1 000E  
           __CFG_WRT$OFF 0000                     _main 062B             ___ftpack@arg 0070  
           ___ftpack@exp 0073                     btemp 007E                     ltemp 007E  
                   start 0000                     ttemp 007E                     wtemp 007E  
           ___fttol@exp1 003D             ___fttol@lval 0039                    ?_main 0070  
        __end_of___awdiv 05BF            __CFG_WDTE$OFF 0000          __end_of___ftdiv 07FC  
        ___awdiv@divisor 003E          __end_of___fttol 0744          ___awdiv@counter 0043  
                  _PORTB 0006                    _TRISB 0086            __CFG_PWRTE$ON 0000  
          ___ftpack@sign 0074           __CFG_BOREN$OFF 0000                    ltemp0 007E  
                  ltemp1 0082                    ltemp2 0086                    ltemp3 0080  
                  ttemp0 007E                    ttemp1 0081                    ttemp2 0084  
                  ttemp3 0087                    ttemp4 007F                    status 0003  
                  wtemp0 007E                    wtemp1 0080                    wtemp2 0082  
                  wtemp3 0084                    wtemp4 0086                    wtemp5 0088  
                  wtemp6 007F          __initialization 07FC             __end_of_main 06B6  
                 ??_main 0047            ___fttol@sign1 0038         ___awdiv@dividend 0040  
       __end_of___ftpack 062B         __end_of___lwtoft 0516                   _TMR1CS 0081  
                 _TMR1ON 0080                   _TRISC2 043A                   _TRISC3 043B  
              ??___awdiv 0042                ??___ftdiv 0026                ??___fttol 0034  
       ___awdiv@quotient 0045  __end_of__initialization 07FC               ___ftdiv@f1 0023  
             ___ftdiv@f2 0020               ___ftdiv@f3 002B       __size_of_calc_dist 004E  
             ___fttol@f1 0030           __pcstackCOMMON 0070               ___lwtoft@c 0078  
             __pmaintext 062B                ?___ftpack 0070                  _T1CKPS0 0084  
                _T1CKPS1 0085                ?___lwtoft 0078        __end_of_calc_dist 0564  
                ___awdiv 0564                  ___ftdiv 0744                  ___fttol 06B6  
             ??___ftpack 0075                  __ptext0 0000                  __ptext1 0516  
                __ptext2 0502                  __ptext3 06B6                  __ptext4 0744  
                __ptext5 05BF                  __ptext6 0564               ??___lwtoft 007B  
   end_of_initialization 07FC              ___ftdiv@exp 002E      start_initialization 07FC  
      __size_of___ftpack 006C                ___latbits 0002        __size_of___lwtoft 0014  
          __pcstackBANK0 0020                _calc_dist 0516                 ?___awdiv 003E  
               ?___ftdiv 0020                 ?___fttol 0030               ?_calc_dist 0070  
      calc_dist@distance 007D         __size_of___awdiv 005B         __size_of___ftdiv 00B8  
       __size_of___fttol 008E                 ___ftpack 05BF                 ___lwtoft 0502  
            ??_calc_dist 007C            __size_of_main 008B                 main@dist 004A  
